target datalayout = "e-m:e-p270:32:32-p271:32:32-p272:64:64-i64:64-i128:128-f80:128-n8:16:32:64-S128"
target triple = "x86_64-pc-linux-gnu"

%struct._zend_executor_globals = type { %struct._zval_struct, %struct._zval_struct, [32 x ptr], ptr, ptr, %struct._zend_array, %struct._zend_array, ptr, i32, i32, ptr, ptr, ptr, ptr, ptr, ptr, i64, ptr, ptr, i32, i32, i64, i32, i32, i32, i8, i8, %struct.zend_atomic_bool_s, %struct.zend_atomic_bool_s, ptr, i64, ptr, ptr, %struct._zend_array, %struct._zend_array, i32, i8, %struct._zval_struct, %struct._zval_struct, %struct._zend_stack, %struct._zend_stack, %struct._zend_stack, ptr, i32, i32, i64, ptr, ptr, ptr, %struct._zend_objects_store, ptr, ptr, ptr, [3 x %struct._zend_op], ptr, i8, i8, i64, i32, i32, ptr, [16 x %struct._HashTableIterator], ptr, %union._zend_function, %struct._zend_op, %struct._zend_array, i64, %struct.zend_get_gc_buffer, ptr, ptr, ptr, i64, i8, i32, ptr, ptr, i64, %struct._zend_call_stack, i64, i64, [6 x ptr] }
%struct.zend_atomic_bool_s = type { i8 }
%struct._zval_struct = type { %union._zend_value, %union.anon.2, %union.anon.5 }
%union._zend_value = type { i64 }
%union.anon.2 = type { i32 }
%union.anon.5 = type { i32 }
%struct._zend_stack = type { i32, i32, i32, ptr }
%struct._zend_objects_store = type { ptr, i32, i32, i32 }
%struct._HashTableIterator = type { ptr, i32, i32 }
%union._zend_function = type { %struct._zend_op_array }
%struct._zend_op_array = type { i8, [3 x i8], i32, ptr, ptr, ptr, i32, i32, ptr, ptr, ptr, ptr, i32, i32, i32, i32, ptr, ptr, ptr, ptr, ptr, i32, i32, ptr, ptr, ptr, i32, i32, i32, i32, ptr, ptr, [6 x ptr] }
%struct._zend_op = type { ptr, %union._znode_op, %union._znode_op, %union._znode_op, i32, i32, i8, i8, i8, i8 }
%union._znode_op = type { i32 }
%struct._zend_array = type { %struct._zend_refcounted_h, %union.anon.7, i32, %union.anon.9, i32, i32, i32, i32, i64, ptr }
%struct._zend_refcounted_h = type { i32, %union.anon.6 }
%union.anon.6 = type { i32 }
%union.anon.7 = type { i32 }
%union.anon.9 = type { ptr }
%struct.zend_get_gc_buffer = type { ptr, ptr, ptr }
%struct._zend_call_stack = type { ptr, i64 }
%struct._spl_filesystem_object = type { ptr, ptr, ptr, ptr, ptr, i32, i64, ptr, ptr, %union.anon, %struct._zend_object }
%union.anon = type { %struct.anon }
%struct.anon = type { ptr, ptr, i32, ptr, ptr, ptr, %struct._php_stream_dirent }
%struct._php_stream_dirent = type { [256 x i8], i8 }
%struct._zend_object = type { %struct._zend_refcounted_h, i32, ptr, ptr, ptr, [1 x %struct._zval_struct] }
%struct._zend_execute_data = type { ptr, ptr, ptr, ptr, %struct._zval_struct, ptr, ptr, ptr, ptr }
%struct.anon.0 = type { ptr, ptr, ptr, ptr, %struct._zval_struct, ptr, i64, i64, i64, %struct._zval_struct, ptr, i8, i8, i32 }

@executor_globals = external global %struct._zend_executor_globals, align 8

; Function Attrs: nounwind uwtable
define internal void @spl_filesystem_file_free_line(ptr noundef %0) #0 {
  %2 = alloca ptr, align 8
  %3 = alloca ptr, align 8
  store ptr %0, ptr %3, align 8
  %4 = load ptr, ptr %3, align 8
  %5 = getelementptr inbounds %struct._spl_filesystem_object, ptr %4, i32 0, i32 9
  %6 = getelementptr inbounds %struct.anon.0, ptr %5, i32 0, i32 5
  %7 = load ptr, ptr %6, align 8
  %8 = icmp ne ptr %7, null
  br i1 %8, label %9, label %17

9:                                                ; preds = %1
  %10 = load ptr, ptr %3, align 8
  %11 = getelementptr inbounds %struct._spl_filesystem_object, ptr %10, i32 0, i32 9
  %12 = getelementptr inbounds %struct.anon.0, ptr %11, i32 0, i32 5
  %13 = load ptr, ptr %12, align 8
  call void @_efree(ptr noundef %13)
  %14 = load ptr, ptr %3, align 8
  %15 = getelementptr inbounds %struct._spl_filesystem_object, ptr %14, i32 0, i32 9
  %16 = getelementptr inbounds %struct.anon.0, ptr %15, i32 0, i32 5
  store ptr null, ptr %16, align 8
  br label %17

17:                                               ; preds = %9, %1
  %18 = load ptr, ptr %3, align 8
  %19 = getelementptr inbounds %struct._spl_filesystem_object, ptr %18, i32 0, i32 9
  %20 = getelementptr inbounds %struct.anon.0, ptr %19, i32 0, i32 4
  store ptr %20, ptr %2, align 8
  %21 = load ptr, ptr %2, align 8
  %22 = getelementptr inbounds %struct._zval_struct, ptr %21, i32 0, i32 1
  %23 = load i8, ptr %22, align 8
  %24 = zext i8 %23 to i32
  %25 = icmp eq i32 %24, 0
  br i1 %25, label %36, label %26

26:                                               ; preds = %17
  %27 = load ptr, ptr %3, align 8
  %28 = getelementptr inbounds %struct._spl_filesystem_object, ptr %27, i32 0, i32 9
  %29 = getelementptr inbounds %struct.anon.0, ptr %28, i32 0, i32 4
  call void @zval_ptr_dtor(ptr noundef %29)
  br label %30

30:                                               ; preds = %26
  %31 = load ptr, ptr %3, align 8
  %32 = getelementptr inbounds %struct._spl_filesystem_object, ptr %31, i32 0, i32 9
  %33 = getelementptr inbounds %struct.anon.0, ptr %32, i32 0, i32 4
  %34 = getelementptr inbounds %struct._zval_struct, ptr %33, i32 0, i32 1
  store i32 0, ptr %34, align 8
  br label %35

35:                                               ; preds = %30
  br label %36

36:                                               ; preds = %35, %17
  ret void
}

; Function Attrs: nounwind uwtable
define internal ptr @spl_filesystem_from_obj(ptr noundef %0) #0 {
  %2 = alloca ptr, align 8
  store ptr %0, ptr %2, align 8
  %3 = load ptr, ptr %2, align 8
  %4 = getelementptr inbounds i8, ptr %3, i64 -384
  ret ptr %4
}

; Function Attrs: nounwind uwtable
define hidden void @zim_SplFileObject_next(ptr noundef %0, ptr noundef %1) #0 {
  %3 = alloca ptr, align 8
  %4 = alloca ptr, align 8
  %5 = alloca ptr, align 8
  store ptr %0, ptr %3, align 8
  store ptr %1, ptr %4, align 8
  %6 = load ptr, ptr %3, align 8
  %7 = getelementptr inbounds %struct._zend_execute_data, ptr %6, i32 0, i32 4
  %8 = getelementptr inbounds %struct._zval_struct, ptr %7, i32 0, i32 0
  %9 = load ptr, ptr %8, align 8
  %10 = call ptr @spl_filesystem_from_obj(ptr noundef %9)
  store ptr %10, ptr %5, align 8
  %11 = load ptr, ptr %3, align 8
  %12 = getelementptr inbounds %struct._zend_execute_data, ptr %11, i32 0, i32 4
  %13 = getelementptr inbounds %struct._zval_struct, ptr %12, i32 0, i32 2
  %14 = load i32, ptr %13, align 4
  %15 = icmp eq i32 %14, 0
  %16 = xor i1 %15, true
  %17 = xor i1 %16, true
  %18 = zext i1 %17 to i32
  %19 = sext i32 %18 to i64
  %20 = icmp ne i64 %19, 0
  br i1 %20, label %21, label %22

21:                                               ; preds = %2
  br label %23

22:                                               ; preds = %2
  call void @zend_wrong_parameters_none_error()
  br label %23

23:                                               ; preds = %22, %21
  %24 = phi i32 [ 0, %21 ], [ -1, %22 ]
  %25 = icmp eq i32 %24, -1
  br i1 %25, label %26, label %31

26:                                               ; preds = %23
  br label %27

27:                                               ; preds = %26
  %28 = load ptr, ptr getelementptr inbounds (%struct._zend_executor_globals, ptr @executor_globals, i32 0, i32 50), align 8
  %29 = icmp ne ptr %28, null
  call void @llvm.assume(i1 %29)
  br label %51

30:                                               ; No predecessors!
  br label %31

31:                                               ; preds = %30, %23
  %32 = load ptr, ptr %5, align 8
  call void @spl_filesystem_file_free_line(ptr noundef %32)
  %33 = load ptr, ptr %5, align 8
  %34 = getelementptr inbounds %struct._spl_filesystem_object, ptr %33, i32 0, i32 6
  %35 = load i64, ptr %34, align 8
  %36 = and i64 %35, 2
  %37 = icmp ne i64 %36, 0
  br i1 %37, label %38, label %39

38:                                               ; preds = %31
  br i1 true, label %40, label %45

39:                                               ; preds = %31
  br i1 false, label %40, label %45

40:                                               ; preds = %39, %38
  %41 = load ptr, ptr %3, align 8
  %42 = getelementptr inbounds %struct._zend_execute_data, ptr %41, i32 0, i32 4
  %43 = load ptr, ptr %5, align 8
  %44 = call i32 @spl_filesystem_file_read_line(ptr noundef %42, ptr noundef %43)
  br label %45

45:                                               ; preds = %40, %39, %38
  %46 = load ptr, ptr %5, align 8
  %47 = getelementptr inbounds %struct._spl_filesystem_object, ptr %46, i32 0, i32 9
  %48 = getelementptr inbounds %struct.anon.0, ptr %47, i32 0, i32 8
  %49 = load i64, ptr %48, align 8
  %50 = add nsw i64 %49, 1
  store i64 %50, ptr %48, align 8
  br label %51

51:                                               ; preds = %45, %27
  ret void
}