; Function Attrs: nounwind uwtable
define hidden void @zim_SplFileObject_next(ptr nocapture noundef readonly %0, ptr nocapture readnone %1) #0 {
  %3 = getelementptr inbounds i8, ptr %0, i64 32
  %4 = load ptr, ptr %3, align 8
  %5 = getelementptr inbounds i8, ptr %4, i64 -384
  %6 = getelementptr inbounds i8, ptr %0, i64 44
  %7 = load i32, ptr %6, align 4
  %.not = icmp eq i32 %7, 0
  br i1 %.not, label %.critedge, label %8

8:                                                ; preds = %2
  tail call void @zend_wrong_parameters_none_error() #18
  %9 = load ptr, ptr getelementptr inbounds (%struct._zend_executor_globals, ptr @executor_globals, i64 0, i32 50), align 8
  %10 = icmp ne ptr %9, null
  tail call void @llvm.assume(i1 %10)
  br label %29

.critedge:                                        ; preds = %2
  %11 = getelementptr inbounds i8, ptr %4, i64 -264
  %12 = load ptr, ptr %11, align 8
  %.not.i = icmp eq ptr %12, null
  br i1 %.not.i, label %14, label %13

13:                                               ; preds = %.critedge
  tail call void @_efree(ptr noundef nonnull %12) #18
  store ptr null, ptr %11, align 8
  br label %14

14:                                               ; preds = %13, %.critedge
  %15 = getelementptr inbounds i8, ptr %4, i64 -272
  %16 = load i8, ptr %15, align 8
  %17 = icmp eq i8 %16, 0
  br i1 %17, label %spl_filesystem_file_free_line.exit, label %18

18:                                               ; preds = %14
  %19 = getelementptr inbounds i8, ptr %4, i64 -280
  tail call void @zval_ptr_dtor(ptr noundef nonnull %19) #18
  store i32 0, ptr %15, align 8
  br label %spl_filesystem_file_free_line.exit

spl_filesystem_file_free_line.exit:               ; preds = %14, %18
  %20 = getelementptr inbounds i8, ptr %4, i64 -336
  %21 = load i64, ptr %20, align 8
  %22 = and i64 %21, 2
  %.not7 = icmp eq i64 %22, 0
  br i1 %.not7, label %25, label %23

23:                                               ; preds = %spl_filesystem_file_free_line.exit
  %24 = tail call fastcc i32 @spl_filesystem_file_read_line(ptr noundef nonnull %3, ptr noundef nonnull %5)
  br label %25

25:                                               ; preds = %spl_filesystem_file_free_line.exit, %23
  %26 = getelementptr inbounds i8, ptr %4, i64 -240
  %27 = load i64, ptr %26, align 8
  %28 = add nsw i64 %27, 1
  store i64 %28, ptr %26, align 8
  br label %29

29:                                               ; preds = %25, %8
  ret void
}